; Function Attrs: nounwind uwtable
define hidden i64 @BIO_int_ctrl(ptr noundef %0, i32 noundef %1, i64 noundef %2, i32 noundef %3) local_unnamed_addr #0 {
  %5 = alloca i32, align 4
  call void @llvm.lifetime.start.p0(i64 4, ptr nonnull %5) #18
  store i32 %3, ptr %5, align 4, !tbaa !30
  %6 = icmp eq ptr %0, null
  br i1 %6, label %BIO_ctrl.exit, label %7

7:                                                ; preds = %4
  %8 = load ptr, ptr %0, align 8, !tbaa !6
  %9 = icmp eq ptr %8, null
  br i1 %9, label %14, label %10

10:                                               ; preds = %7
  %11 = getelementptr inbounds nuw i8, ptr %8, i64 48
  %12 = load ptr, ptr %11, align 8, !tbaa !28
  %13 = icmp eq ptr %12, null
  br i1 %13, label %14, label %15

14:                                               ; preds = %10, %7
  tail call void @ERR_put_error(i32 noundef 17, i32 noundef 0, i32 noundef 115, ptr noundef nonnull @.str, i32 noundef 220) #18
  br label %BIO_ctrl.exit

15:                                               ; preds = %10
  %16 = getelementptr inbounds nuw i8, ptr %0, i64 8
  %17 = load ptr, ptr %16, align 8, !tbaa !20
  %.not.i = icmp eq ptr %17, null
  br i1 %.not.i, label %21, label %18

18:                                               ; preds = %15
  %19 = call i64 %17(ptr noundef nonnull %0, i32 noundef 6, ptr noundef nonnull %5, i32 noundef %1, i64 noundef %2, i64 noundef 1) #18
  %20 = icmp slt i64 %19, 1
  br i1 %20, label %BIO_ctrl.exit, label %._crit_edge.i

._crit_edge.i:                                    ; preds = %18
  %.pre.i = load ptr, ptr %0, align 8, !tbaa !6
  %.phi.trans.insert.i = getelementptr inbounds nuw i8, ptr %.pre.i, i64 48
  %.pre31.i = load ptr, ptr %.phi.trans.insert.i, align 8, !tbaa !28
  br label %21

21:                                               ; preds = %._crit_edge.i, %15
  %22 = phi ptr [ %.pre31.i, %._crit_edge.i ], [ %12, %15 ]
  %23 = call i64 %22(ptr noundef nonnull %0, i32 noundef %1, i64 noundef %2, ptr noundef nonnull %5) #18
  %24 = load ptr, ptr %16, align 8, !tbaa !20
  %.not30.i = icmp eq ptr %24, null
  br i1 %.not30.i, label %BIO_ctrl.exit, label %25

25:                                               ; preds = %21
  %26 = call i64 %24(ptr noundef nonnull %0, i32 noundef 134, ptr noundef nonnull %5, i32 noundef %1, i64 noundef %2, i64 noundef %23) #18
  br label %BIO_ctrl.exit

BIO_ctrl.exit:                                    ; preds = %4, %14, %18, %21, %25
  %.024.i = phi i64 [ -2, %14 ], [ 0, %4 ], [ %19, %18 ], [ %26, %25 ], [ %23, %21 ]
  call void @llvm.lifetime.end.p0(i64 4, ptr nonnull %5) #18
  ret i64 %.024.i
}